
Convertidor AC_DC PWM.elf:     file format elf32-avr

Sections:
Idx Name          Size      VMA       LMA       File off  Algn
  0 .data         0000004a  00800100  00000ba8  00000c3c  2**0
                  CONTENTS, ALLOC, LOAD, DATA
  1 .text         00000ba8  00000000  00000000  00000094  2**1
                  CONTENTS, ALLOC, LOAD, READONLY, CODE
  2 .bss          0000002a  0080014a  0080014a  00000c86  2**0
                  ALLOC
  3 .comment      00000030  00000000  00000000  00000c86  2**0
                  CONTENTS, READONLY
  4 .debug_aranges 00000080  00000000  00000000  00000cb6  2**0
                  CONTENTS, READONLY, DEBUGGING
  5 .debug_info   00000fa4  00000000  00000000  00000d36  2**0
                  CONTENTS, READONLY, DEBUGGING
  6 .debug_abbrev 00000275  00000000  00000000  00001cda  2**0
                  CONTENTS, READONLY, DEBUGGING
  7 .debug_line   000004dd  00000000  00000000  00001f4f  2**0
                  CONTENTS, READONLY, DEBUGGING
  8 .debug_frame  000001d0  00000000  00000000  0000242c  2**2
                  CONTENTS, READONLY, DEBUGGING
  9 .debug_str    00000300  00000000  00000000  000025fc  2**0
                  CONTENTS, READONLY, DEBUGGING
 10 .debug_loc    0000043a  00000000  00000000  000028fc  2**0
                  CONTENTS, READONLY, DEBUGGING
 11 .debug_ranges 00000070  00000000  00000000  00002d36  2**0
                  CONTENTS, READONLY, DEBUGGING

Disassembly of section .text:

00000000 <__vectors>:
   0:	0c 94 34 00 	jmp	0x68	; 0x68 <__ctors_end>
   4:	0c 94 83 01 	jmp	0x306	; 0x306 <__vector_1>
   8:	0c 94 6d 01 	jmp	0x2da	; 0x2da <__vector_2>
   c:	0c 94 51 00 	jmp	0xa2	; 0xa2 <__bad_interrupt>
  10:	0c 94 51 00 	jmp	0xa2	; 0xa2 <__bad_interrupt>
  14:	0c 94 51 00 	jmp	0xa2	; 0xa2 <__bad_interrupt>
  18:	0c 94 51 00 	jmp	0xa2	; 0xa2 <__bad_interrupt>
  1c:	0c 94 51 00 	jmp	0xa2	; 0xa2 <__bad_interrupt>
  20:	0c 94 51 00 	jmp	0xa2	; 0xa2 <__bad_interrupt>
  24:	0c 94 51 00 	jmp	0xa2	; 0xa2 <__bad_interrupt>
  28:	0c 94 51 00 	jmp	0xa2	; 0xa2 <__bad_interrupt>
  2c:	0c 94 51 00 	jmp	0xa2	; 0xa2 <__bad_interrupt>
  30:	0c 94 51 00 	jmp	0xa2	; 0xa2 <__bad_interrupt>
  34:	0c 94 af 01 	jmp	0x35e	; 0x35e <__vector_13>
  38:	0c 94 51 00 	jmp	0xa2	; 0xa2 <__bad_interrupt>
  3c:	0c 94 51 00 	jmp	0xa2	; 0xa2 <__bad_interrupt>
  40:	0c 94 51 00 	jmp	0xa2	; 0xa2 <__bad_interrupt>
  44:	0c 94 51 00 	jmp	0xa2	; 0xa2 <__bad_interrupt>
  48:	0c 94 34 01 	jmp	0x268	; 0x268 <__vector_18>
  4c:	0c 94 51 00 	jmp	0xa2	; 0xa2 <__bad_interrupt>
  50:	0c 94 51 00 	jmp	0xa2	; 0xa2 <__bad_interrupt>
  54:	0c 94 99 01 	jmp	0x332	; 0x332 <__vector_21>
  58:	0c 94 51 00 	jmp	0xa2	; 0xa2 <__bad_interrupt>
  5c:	0c 94 51 00 	jmp	0xa2	; 0xa2 <__bad_interrupt>
  60:	0c 94 51 00 	jmp	0xa2	; 0xa2 <__bad_interrupt>
  64:	0c 94 51 00 	jmp	0xa2	; 0xa2 <__bad_interrupt>

00000068 <__ctors_end>:
  68:	11 24       	eor	r1, r1
  6a:	1f be       	out	0x3f, r1	; 63
  6c:	cf ef       	ldi	r28, 0xFF	; 255
  6e:	d8 e0       	ldi	r29, 0x08	; 8
  70:	de bf       	out	0x3e, r29	; 62
  72:	cd bf       	out	0x3d, r28	; 61

00000074 <__do_copy_data>:
  74:	11 e0       	ldi	r17, 0x01	; 1
  76:	a0 e0       	ldi	r26, 0x00	; 0
  78:	b1 e0       	ldi	r27, 0x01	; 1
  7a:	e8 ea       	ldi	r30, 0xA8	; 168
  7c:	fb e0       	ldi	r31, 0x0B	; 11
  7e:	02 c0       	rjmp	.+4      	; 0x84 <__do_copy_data+0x10>
  80:	05 90       	lpm	r0, Z+
  82:	0d 92       	st	X+, r0
  84:	aa 34       	cpi	r26, 0x4A	; 74
  86:	b1 07       	cpc	r27, r17
  88:	d9 f7       	brne	.-10     	; 0x80 <__do_copy_data+0xc>

0000008a <__do_clear_bss>:
  8a:	21 e0       	ldi	r18, 0x01	; 1
  8c:	aa e4       	ldi	r26, 0x4A	; 74
  8e:	b1 e0       	ldi	r27, 0x01	; 1
  90:	01 c0       	rjmp	.+2      	; 0x94 <.do_clear_bss_start>

00000092 <.do_clear_bss_loop>:
  92:	1d 92       	st	X+, r1

00000094 <.do_clear_bss_start>:
  94:	a4 37       	cpi	r26, 0x74	; 116
  96:	b2 07       	cpc	r27, r18
  98:	e1 f7       	brne	.-8      	; 0x92 <.do_clear_bss_loop>
  9a:	0e 94 25 05 	call	0xa4a	; 0xa4a <main>
  9e:	0c 94 d2 05 	jmp	0xba4	; 0xba4 <_exit>

000000a2 <__bad_interrupt>:
  a2:	0c 94 00 00 	jmp	0	; 0x0 <__vectors>

000000a6 <CONTROL>:
	}
	}
//######################################################### FUNCION PARA ESTABLECER CONTROL LOCAL/REMOTO #######################################################################################

void CONTROL(char DATO[])
{
  a6:	cf 93       	push	r28
  a8:	df 93       	push	r29
  aa:	cd b7       	in	r28, 0x3d	; 61
  ac:	de b7       	in	r29, 0x3e	; 62
  ae:	69 97       	sbiw	r28, 0x19	; 25
  b0:	0f b6       	in	r0, 0x3f	; 63
  b2:	f8 94       	cli
  b4:	de bf       	out	0x3e, r29	; 62
  b6:	0f be       	out	0x3f, r0	; 63
  b8:	cd bf       	out	0x3d, r28	; 61
	char mremoto[]="Modo Remoto\n";
  ba:	8d e0       	ldi	r24, 0x0D	; 13
  bc:	e0 e0       	ldi	r30, 0x00	; 0
  be:	f1 e0       	ldi	r31, 0x01	; 1
  c0:	de 01       	movw	r26, r28
  c2:	11 96       	adiw	r26, 0x01	; 1
  c4:	01 90       	ld	r0, Z+
  c6:	0d 92       	st	X+, r0
  c8:	8a 95       	dec	r24
  ca:	e1 f7       	brne	.-8      	; 0xc4 <CONTROL+0x1e>
	char mlocal[]="Modo Local\n";
  cc:	8c e0       	ldi	r24, 0x0C	; 12
  ce:	ed e0       	ldi	r30, 0x0D	; 13
  d0:	f1 e0       	ldi	r31, 0x01	; 1
  d2:	de 01       	movw	r26, r28
  d4:	1e 96       	adiw	r26, 0x0e	; 14
  d6:	01 90       	ld	r0, Z+
  d8:	0d 92       	st	X+, r0
  da:	8a 95       	dec	r24
  dc:	e1 f7       	brne	.-8      	; 0xd6 <CONTROL+0x30>
	int dec = 0, uni = 0, decimal = 0, resultado = 0;
	
	//<<<<<<<<<<<<<<<<<SI EL MODO ES REMOTO>>>>>>>>>>>>>>>>>
	if (modo==1)		
  de:	80 91 72 01 	lds	r24, 0x0172
  e2:	90 91 73 01 	lds	r25, 0x0173
  e6:	01 97       	sbiw	r24, 0x01	; 1
  e8:	09 f0       	breq	.+2      	; 0xec <CONTROL+0x46>
  ea:	60 c0       	rjmp	.+192    	; 0x1ac <CONTROL+0x106>
	{
		if (modoant!=1)		
  ec:	80 91 6a 01 	lds	r24, 0x016A
  f0:	90 91 6b 01 	lds	r25, 0x016B
  f4:	01 97       	sbiw	r24, 0x01	; 1
  f6:	91 f1       	breq	.+100    	; 0x15c <CONTROL+0xb6>
		{
			ADCSRA = (0<<ADEN)|(0<<ADSC);			//OFF CAD
  f8:	10 92 7a 00 	sts	0x007A, r1
			modoant=1;
  fc:	81 e0       	ldi	r24, 0x01	; 1
  fe:	90 e0       	ldi	r25, 0x00	; 0
 100:	90 93 6b 01 	sts	0x016B, r25
 104:	80 93 6a 01 	sts	0x016A, r24
			for (i=0;i<=strlen(mremoto);i++)
 108:	10 92 69 01 	sts	0x0169, r1
 10c:	10 92 68 01 	sts	0x0168, r1
 110:	a0 e0       	ldi	r26, 0x00	; 0
 112:	b0 e0       	ldi	r27, 0x00	; 0
			{
				while ( !(UCSR0A &(1<<UDRE0)));
 114:	e0 ec       	ldi	r30, 0xC0	; 192
 116:	f0 e0       	ldi	r31, 0x00	; 0
				UDR0=mremoto[i];				//Mostramos "MODO REMOTO"
 118:	9e 01       	movw	r18, r28
 11a:	2f 5f       	subi	r18, 0xFF	; 255
 11c:	3f 4f       	sbci	r19, 0xFF	; 255
 11e:	46 ec       	ldi	r20, 0xC6	; 198
 120:	50 e0       	ldi	r21, 0x00	; 0
 122:	01 c0       	rjmp	.+2      	; 0x126 <CONTROL+0x80>
	{
		if (modoant!=1)		
		{
			ADCSRA = (0<<ADEN)|(0<<ADSC);			//OFF CAD
			modoant=1;
			for (i=0;i<=strlen(mremoto);i++)
 124:	dc 01       	movw	r26, r24
			{
				while ( !(UCSR0A &(1<<UDRE0)));
 126:	80 81       	ld	r24, Z
 128:	85 ff       	sbrs	r24, 5
 12a:	fd cf       	rjmp	.-6      	; 0x126 <CONTROL+0x80>
				UDR0=mremoto[i];				//Mostramos "MODO REMOTO"
 12c:	a2 0f       	add	r26, r18
 12e:	b3 1f       	adc	r27, r19
 130:	8c 91       	ld	r24, X
 132:	da 01       	movw	r26, r20
 134:	8c 93       	st	X, r24
	{
		if (modoant!=1)		
		{
			ADCSRA = (0<<ADEN)|(0<<ADSC);			//OFF CAD
			modoant=1;
			for (i=0;i<=strlen(mremoto);i++)
 136:	80 91 68 01 	lds	r24, 0x0168
 13a:	90 91 69 01 	lds	r25, 0x0169
 13e:	01 96       	adiw	r24, 0x01	; 1
 140:	90 93 69 01 	sts	0x0169, r25
 144:	80 93 68 01 	sts	0x0168, r24
 148:	d9 01       	movw	r26, r18
 14a:	0d 90       	ld	r0, X+
 14c:	00 20       	and	r0, r0
 14e:	e9 f7       	brne	.-6      	; 0x14a <CONTROL+0xa4>
 150:	11 97       	sbiw	r26, 0x01	; 1
 152:	a2 1b       	sub	r26, r18
 154:	b3 0b       	sbc	r27, r19
 156:	a8 17       	cp	r26, r24
 158:	b9 07       	cpc	r27, r25
 15a:	20 f7       	brcc	.-56     	; 0x124 <CONTROL+0x7e>
				while ( !(UCSR0A &(1<<UDRE0)));
				UDR0=mremoto[i];				//Mostramos "MODO REMOTO"
			}
		}
		
		dec = (valor[0] - 48) * 100;
 15c:	80 91 5e 01 	lds	r24, 0x015E
 160:	90 e0       	ldi	r25, 0x00	; 0
 162:	c0 97       	sbiw	r24, 0x30	; 48
 164:	44 e6       	ldi	r20, 0x64	; 100
 166:	48 9f       	mul	r20, r24
 168:	90 01       	movw	r18, r0
 16a:	49 9f       	mul	r20, r25
 16c:	30 0d       	add	r19, r0
 16e:	11 24       	eor	r1, r1
		uni = (valor[1] - 48) * 10;
 170:	80 91 5f 01 	lds	r24, 0x015F
 174:	90 e0       	ldi	r25, 0x00	; 0
 176:	c0 97       	sbiw	r24, 0x30	; 48
 178:	ac 01       	movw	r20, r24
 17a:	44 0f       	add	r20, r20
 17c:	55 1f       	adc	r21, r21
 17e:	88 0f       	add	r24, r24
 180:	99 1f       	adc	r25, r25
 182:	88 0f       	add	r24, r24
 184:	99 1f       	adc	r25, r25
 186:	88 0f       	add	r24, r24
 188:	99 1f       	adc	r25, r25
 18a:	84 0f       	add	r24, r20
 18c:	95 1f       	adc	r25, r21
		decimal = (valor[3] - 48);
		resultado = dec + uni + decimal;
 18e:	28 0f       	add	r18, r24
 190:	39 1f       	adc	r19, r25
			}
		}
		
		dec = (valor[0] - 48) * 100;
		uni = (valor[1] - 48) * 10;
		decimal = (valor[3] - 48);
 192:	80 91 61 01 	lds	r24, 0x0161
 196:	90 e0       	ldi	r25, 0x00	; 0
 198:	c0 97       	sbiw	r24, 0x30	; 48
		resultado = dec + uni + decimal;
 19a:	82 0f       	add	r24, r18
 19c:	93 1f       	adc	r25, r19
	
		if(resultado<=150)					//+++++ ACA HAY QUE VER QUE PUTA PREGUNTAMOS!!!+++ =( =P
 19e:	87 39       	cpi	r24, 0x97	; 151
 1a0:	91 05       	cpc	r25, r1
 1a2:	24 f4       	brge	.+8      	; 0x1ac <CONTROL+0x106>
			{
				Tension_Deseada = resultado;
 1a4:	90 93 5d 01 	sts	0x015D, r25
 1a8:	80 93 5c 01 	sts	0x015C, r24
			}
	}
	
	//<<<<<<<<<<<<<<SI EL MODO ES LOCAL>>>>>>>>>>>>>>>>>>>>>>
	if (modo==0)
 1ac:	80 91 72 01 	lds	r24, 0x0172
 1b0:	90 91 73 01 	lds	r25, 0x0173
 1b4:	89 2b       	or	r24, r25
 1b6:	c9 f5       	brne	.+114    	; 0x22a <CONTROL+0x184>
	{
		if (modoant!=2)
 1b8:	80 91 6a 01 	lds	r24, 0x016A
 1bc:	90 91 6b 01 	lds	r25, 0x016B
 1c0:	02 97       	sbiw	r24, 0x02	; 2
 1c2:	99 f1       	breq	.+102    	; 0x22a <CONTROL+0x184>
		{
			ADCSRA = (1<<ADEN)|(0<<ADSC)|(1<<ADPS1)|(1<<ADPS0);	//ON CAD
 1c4:	83 e8       	ldi	r24, 0x83	; 131
 1c6:	80 93 7a 00 	sts	0x007A, r24
			modoant=2;
 1ca:	82 e0       	ldi	r24, 0x02	; 2
 1cc:	90 e0       	ldi	r25, 0x00	; 0
 1ce:	90 93 6b 01 	sts	0x016B, r25
 1d2:	80 93 6a 01 	sts	0x016A, r24
			for (i=0;i<=strlen(mlocal);i++)
 1d6:	10 92 69 01 	sts	0x0169, r1
 1da:	10 92 68 01 	sts	0x0168, r1
 1de:	a0 e0       	ldi	r26, 0x00	; 0
 1e0:	b0 e0       	ldi	r27, 0x00	; 0
			{
				while ( !(UCSR0A &(1<<UDRE0)));
 1e2:	e0 ec       	ldi	r30, 0xC0	; 192
 1e4:	f0 e0       	ldi	r31, 0x00	; 0
				UDR0=mlocal[i];					//Mostramos "MODO LOCAL"
 1e6:	9e 01       	movw	r18, r28
 1e8:	22 5f       	subi	r18, 0xF2	; 242
 1ea:	3f 4f       	sbci	r19, 0xFF	; 255
 1ec:	46 ec       	ldi	r20, 0xC6	; 198
 1ee:	50 e0       	ldi	r21, 0x00	; 0
 1f0:	01 c0       	rjmp	.+2      	; 0x1f4 <CONTROL+0x14e>
	{
		if (modoant!=2)
		{
			ADCSRA = (1<<ADEN)|(0<<ADSC)|(1<<ADPS1)|(1<<ADPS0);	//ON CAD
			modoant=2;
			for (i=0;i<=strlen(mlocal);i++)
 1f2:	dc 01       	movw	r26, r24
			{
				while ( !(UCSR0A &(1<<UDRE0)));
 1f4:	80 81       	ld	r24, Z
 1f6:	85 ff       	sbrs	r24, 5
 1f8:	fd cf       	rjmp	.-6      	; 0x1f4 <CONTROL+0x14e>
				UDR0=mlocal[i];					//Mostramos "MODO LOCAL"
 1fa:	a2 0f       	add	r26, r18
 1fc:	b3 1f       	adc	r27, r19
 1fe:	8c 91       	ld	r24, X
 200:	da 01       	movw	r26, r20
 202:	8c 93       	st	X, r24
	{
		if (modoant!=2)
		{
			ADCSRA = (1<<ADEN)|(0<<ADSC)|(1<<ADPS1)|(1<<ADPS0);	//ON CAD
			modoant=2;
			for (i=0;i<=strlen(mlocal);i++)
 204:	80 91 68 01 	lds	r24, 0x0168
 208:	90 91 69 01 	lds	r25, 0x0169
 20c:	01 96       	adiw	r24, 0x01	; 1
 20e:	90 93 69 01 	sts	0x0169, r25
 212:	80 93 68 01 	sts	0x0168, r24
 216:	d9 01       	movw	r26, r18
 218:	0d 90       	ld	r0, X+
 21a:	00 20       	and	r0, r0
 21c:	e9 f7       	brne	.-6      	; 0x218 <CONTROL+0x172>
 21e:	11 97       	sbiw	r26, 0x01	; 1
 220:	a2 1b       	sub	r26, r18
 222:	b3 0b       	sbc	r27, r19
 224:	a8 17       	cp	r26, r24
 226:	b9 07       	cpc	r27, r25
 228:	20 f7       	brcc	.-56     	; 0x1f2 <CONTROL+0x14c>
				while ( !(UCSR0A &(1<<UDRE0)));
				UDR0=mlocal[i];					//Mostramos "MODO LOCAL"
			}
		}									
	}
}
 22a:	69 96       	adiw	r28, 0x19	; 25
 22c:	0f b6       	in	r0, 0x3f	; 63
 22e:	f8 94       	cli
 230:	de bf       	out	0x3e, r29	; 62
 232:	0f be       	out	0x3f, r0	; 63
 234:	cd bf       	out	0x3d, r28	; 61
 236:	df 91       	pop	r29
 238:	cf 91       	pop	r28
 23a:	08 95       	ret

0000023c <OnOffSwitch>:

//######################################################### FUNCION PARA ENCENDER/APAGAR PWM EN MODO LOCAL ##################################################################################################################

uint8_t OnOffSwitch(void)
{
	if((PIND & (1<<PIND7)) == 0)					// Si el botón esta presionado.
 23c:	4f 99       	sbic	0x09, 7	; 9
 23e:	09 c0       	rjmp	.+18     	; 0x252 <OnOffSwitch+0x16>
	#else
		//round up by default
		__ticks_dc = (uint32_t)(ceil(fabs(__tmp)));
	#endif

	__builtin_avr_delay_cycles(__ticks_dc);
 240:	2f ef       	ldi	r18, 0xFF	; 255
 242:	80 e7       	ldi	r24, 0x70	; 112
 244:	92 e0       	ldi	r25, 0x02	; 2
 246:	21 50       	subi	r18, 0x01	; 1
 248:	80 40       	sbci	r24, 0x00	; 0
 24a:	90 40       	sbci	r25, 0x00	; 0
 24c:	e1 f7       	brne	.-8      	; 0x246 <OnOffSwitch+0xa>
 24e:	00 c0       	rjmp	.+0      	; 0x250 <OnOffSwitch+0x14>
 250:	00 00       	nop
	{
		_delay_ms(50);								// Retardo de entrada para el valor leído.
	}
	if((PIND & (1<<PIND7)) == 0)					// Verifica que la la lectura sea correcta.
 252:	89 b1       	in	r24, 0x09	; 9
 254:	80 95       	com	r24
	}
	else
	{
		return 0;									// Si el valor cambio la lectura es incorrecta.
	}
}
 256:	88 1f       	adc	r24, r24
 258:	88 27       	eor	r24, r24
 25a:	88 1f       	adc	r24, r24
 25c:	08 95       	ret

0000025e <SwitchModo>:

uint8_t SwitchModo(void)
{
	if((PIND & (1<<PIND6)) == 0)					// Si el botón esta presionado.
 25e:	89 b1       	in	r24, 0x09	; 9
	}
	else
	{
		return 1;									// Si devuellve 0 es modo remoto
	}
}
 260:	86 fb       	bst	r24, 6
 262:	88 27       	eor	r24, r24
 264:	80 f9       	bld	r24, 0
 266:	08 95       	ret

00000268 <__vector_18>:

//######################################################### VECTOR DE INTERRUPCION RECEPCION DE DATOS ##################################################################################################################

ISR(USART_RX_vect)
{
 268:	1f 92       	push	r1
 26a:	0f 92       	push	r0
 26c:	0f b6       	in	r0, 0x3f	; 63
 26e:	0f 92       	push	r0
 270:	11 24       	eor	r1, r1
 272:	2f 93       	push	r18
 274:	8f 93       	push	r24
 276:	9f 93       	push	r25
 278:	ef 93       	push	r30
 27a:	ff 93       	push	r31
	datoRX=UDR0;	// Leemos el buffer de recepcion
 27c:	20 91 c6 00 	lds	r18, 0x00C6
 280:	20 93 71 01 	sts	0x0171, r18
	
	if(datoRX=='O')
 284:	2f 34       	cpi	r18, 0x4F	; 79
 286:	39 f4       	brne	.+14     	; 0x296 <__vector_18+0x2e>
	{
		estado=1;	// si se cumple pone variable indice a 0
 288:	81 e0       	ldi	r24, 0x01	; 1
 28a:	90 e0       	ldi	r25, 0x00	; 0
 28c:	90 93 5b 01 	sts	0x015B, r25
 290:	80 93 5a 01 	sts	0x015A, r24
 294:	07 c0       	rjmp	.+14     	; 0x2a4 <__vector_18+0x3c>
	}
	
	if(datoRX=='$')
 296:	24 32       	cpi	r18, 0x24	; 36
 298:	29 f4       	brne	.+10     	; 0x2a4 <__vector_18+0x3c>
	{
		indice=0;	// si se cumple pone variable indice a 0
 29a:	10 92 51 01 	sts	0x0151, r1
 29e:	10 92 50 01 	sts	0x0150, r1
 2a2:	11 c0       	rjmp	.+34     	; 0x2c6 <__vector_18+0x5e>
	}
	
	if((datoRX>='0') && (datoRX<='9'))		// Si es un numero lo guarda en DATO
 2a4:	80 ed       	ldi	r24, 0xD0	; 208
 2a6:	82 0f       	add	r24, r18
 2a8:	8a 30       	cpi	r24, 0x0A	; 10
 2aa:	68 f4       	brcc	.+26     	; 0x2c6 <__vector_18+0x5e>
	{
		valor[indice]=datoRX;
 2ac:	80 91 50 01 	lds	r24, 0x0150
 2b0:	90 91 51 01 	lds	r25, 0x0151
 2b4:	fc 01       	movw	r30, r24
 2b6:	e2 5a       	subi	r30, 0xA2	; 162
 2b8:	fe 4f       	sbci	r31, 0xFE	; 254
 2ba:	20 83       	st	Z, r18
		indice++;
 2bc:	01 96       	adiw	r24, 0x01	; 1
 2be:	90 93 51 01 	sts	0x0151, r25
 2c2:	80 93 50 01 	sts	0x0150, r24
	}
		
	return;
}
 2c6:	ff 91       	pop	r31
 2c8:	ef 91       	pop	r30
 2ca:	9f 91       	pop	r25
 2cc:	8f 91       	pop	r24
 2ce:	2f 91       	pop	r18
 2d0:	0f 90       	pop	r0
 2d2:	0f be       	out	0x3f, r0	; 63
 2d4:	0f 90       	pop	r0
 2d6:	1f 90       	pop	r1
 2d8:	18 95       	reti

000002da <__vector_2>:

//######################################################### RUTINA DE TRATAMIENTO DE INTERRUPCION EXTERNA ##################################################################################################################

ISR (INT1_vect) // PD3(pin3)
{
 2da:	1f 92       	push	r1
 2dc:	0f 92       	push	r0
 2de:	0f b6       	in	r0, 0x3f	; 63
 2e0:	0f 92       	push	r0
 2e2:	11 24       	eor	r1, r1
 2e4:	8f 93       	push	r24
 2e6:	9f 93       	push	r25
	PORTB &= ~ (1<<PORTB0); //~ En 0 PINB0
 2e8:	28 98       	cbi	0x05, 0	; 5
	#else
		//round up by default
		__ticks_dc = (uint32_t)(ceil(fabs(__tmp)));
	#endif

	__builtin_avr_delay_cycles(__ticks_dc);
 2ea:	8f e8       	ldi	r24, 0x8F	; 143
 2ec:	91 e0       	ldi	r25, 0x01	; 1
 2ee:	01 97       	sbiw	r24, 0x01	; 1
 2f0:	f1 f7       	brne	.-4      	; 0x2ee <__vector_2+0x14>
 2f2:	00 c0       	rjmp	.+0      	; 0x2f4 <__vector_2+0x1a>
 2f4:	00 00       	nop
	_delay_us(100);
	PORTB |= (1<<PORTB1); // En 1 PB1(9) Semiciclo negativo
 2f6:	29 9a       	sbi	0x05, 1	; 5
}
 2f8:	9f 91       	pop	r25
 2fa:	8f 91       	pop	r24
 2fc:	0f 90       	pop	r0
 2fe:	0f be       	out	0x3f, r0	; 63
 300:	0f 90       	pop	r0
 302:	1f 90       	pop	r1
 304:	18 95       	reti

00000306 <__vector_1>:

ISR (INT0_vect) // PD2(pin2)
{
 306:	1f 92       	push	r1
 308:	0f 92       	push	r0
 30a:	0f b6       	in	r0, 0x3f	; 63
 30c:	0f 92       	push	r0
 30e:	11 24       	eor	r1, r1
 310:	8f 93       	push	r24
 312:	9f 93       	push	r25
	PORTB &= ~ (1<<PORTB1); // En 0 PB1
 314:	29 98       	cbi	0x05, 1	; 5
 316:	8f e8       	ldi	r24, 0x8F	; 143
 318:	91 e0       	ldi	r25, 0x01	; 1
 31a:	01 97       	sbiw	r24, 0x01	; 1
 31c:	f1 f7       	brne	.-4      	; 0x31a <__vector_1+0x14>
 31e:	00 c0       	rjmp	.+0      	; 0x320 <__vector_1+0x1a>
 320:	00 00       	nop
	_delay_us(100);
	PORTB |= (1<<PORTB0); // En 1 PB0(8) Semiciclo positivo
 322:	28 9a       	sbi	0x05, 0	; 5
}
 324:	9f 91       	pop	r25
 326:	8f 91       	pop	r24
 328:	0f 90       	pop	r0
 32a:	0f be       	out	0x3f, r0	; 63
 32c:	0f 90       	pop	r0
 32e:	1f 90       	pop	r1
 330:	18 95       	reti

00000332 <__vector_21>:

//######################################################### RUTINA DE TRATAMIENTO DE INTERRUPCION DEL CAD ##################################################################################################################

ISR(ADC_vect)
{
 332:	1f 92       	push	r1
 334:	0f 92       	push	r0
 336:	0f b6       	in	r0, 0x3f	; 63
 338:	0f 92       	push	r0
 33a:	11 24       	eor	r1, r1
 33c:	8f 93       	push	r24
 33e:	9f 93       	push	r25
	ADC_Pote=ADC;
 340:	80 91 78 00 	lds	r24, 0x0078
 344:	90 91 79 00 	lds	r25, 0x0079
 348:	90 93 59 01 	sts	0x0159, r25
 34c:	80 93 58 01 	sts	0x0158, r24
	//if(ADMUX==1)
	//{
		//ADC_Volt= ADC;
		//ADMUX &= ~ (0<<MUX0);
	//}
}
 350:	9f 91       	pop	r25
 352:	8f 91       	pop	r24
 354:	0f 90       	pop	r0
 356:	0f be       	out	0x3f, r0	; 63
 358:	0f 90       	pop	r0
 35a:	1f 90       	pop	r1
 35c:	18 95       	reti

0000035e <__vector_13>:
//######################################################### RUTINA DE TRATAMIENTO DE INTERRUPCION DEL TIMER1_OVF ##################################################################################################################

ISR(TIMER1_OVF_vect)
{
 35e:	1f 92       	push	r1
 360:	0f 92       	push	r0
 362:	0f b6       	in	r0, 0x3f	; 63
 364:	0f 92       	push	r0
 366:	11 24       	eor	r1, r1
 368:	2f 93       	push	r18
 36a:	3f 93       	push	r19
 36c:	4f 93       	push	r20
 36e:	5f 93       	push	r21
 370:	6f 93       	push	r22
 372:	7f 93       	push	r23
 374:	8f 93       	push	r24
 376:	9f 93       	push	r25
 378:	af 93       	push	r26
 37a:	bf 93       	push	r27
	if (modo==0)
 37c:	80 91 72 01 	lds	r24, 0x0172
 380:	90 91 73 01 	lds	r25, 0x0173
 384:	89 2b       	or	r24, r25
 386:	91 f4       	brne	.+36     	; 0x3ac <__vector_13+0x4e>
	{
		Tension_Deseada = ADC_Pote*100/1023;	 // Guardamos el valor del ADC0 	
 388:	20 91 58 01 	lds	r18, 0x0158
 38c:	30 91 59 01 	lds	r19, 0x0159
 390:	44 e6       	ldi	r20, 0x64	; 100
 392:	42 9f       	mul	r20, r18
 394:	c0 01       	movw	r24, r0
 396:	43 9f       	mul	r20, r19
 398:	90 0d       	add	r25, r0
 39a:	11 24       	eor	r1, r1
 39c:	6f ef       	ldi	r22, 0xFF	; 255
 39e:	73 e0       	ldi	r23, 0x03	; 3
 3a0:	0e 94 aa 05 	call	0xb54	; 0xb54 <__divmodhi4>
 3a4:	70 93 5d 01 	sts	0x015D, r23
 3a8:	60 93 5c 01 	sts	0x015C, r22
	}
	
	OCR0B = Tension_Deseada*199/100;			// PD5 salida PWM OC0B
 3ac:	20 91 5c 01 	lds	r18, 0x015C
 3b0:	30 91 5d 01 	lds	r19, 0x015D
 3b4:	47 ec       	ldi	r20, 0xC7	; 199
 3b6:	42 9f       	mul	r20, r18
 3b8:	c0 01       	movw	r24, r0
 3ba:	43 9f       	mul	r20, r19
 3bc:	90 0d       	add	r25, r0
 3be:	11 24       	eor	r1, r1
 3c0:	64 e6       	ldi	r22, 0x64	; 100
 3c2:	70 e0       	ldi	r23, 0x00	; 0
 3c4:	0e 94 aa 05 	call	0xb54	; 0xb54 <__divmodhi4>
 3c8:	68 bd       	out	0x28, r22	; 40
}
 3ca:	bf 91       	pop	r27
 3cc:	af 91       	pop	r26
 3ce:	9f 91       	pop	r25
 3d0:	8f 91       	pop	r24
 3d2:	7f 91       	pop	r23
 3d4:	6f 91       	pop	r22
 3d6:	5f 91       	pop	r21
 3d8:	4f 91       	pop	r20
 3da:	3f 91       	pop	r19
 3dc:	2f 91       	pop	r18
 3de:	0f 90       	pop	r0
 3e0:	0f be       	out	0x3f, r0	; 63
 3e2:	0f 90       	pop	r0
 3e4:	1f 90       	pop	r1
 3e6:	18 95       	reti

000003e8 <SPI_MasterTransmit>:
}
//######################################################### SPI_MasterTransmit ##################################################################################################################

void SPI_MasterTransmit(int cData)
{
	SPDR = cData;
 3e8:	8e bd       	out	0x2e, r24	; 46
	while(!(SPSR & (1<<SPIF)))
 3ea:	0d b4       	in	r0, 0x2d	; 45
 3ec:	07 fe       	sbrs	r0, 7
 3ee:	fd cf       	rjmp	.-6      	; 0x3ea <SPI_MasterTransmit+0x2>
	;
}
 3f0:	08 95       	ret

000003f2 <SPI_initial>:

void SPI_initial()
{
	////////////////////////////////////////// Intensidad de brillo /////////////////////////////////////////
	
	PORTB = (0<<PORTB2);				//Indico inicio de transferencia
 3f2:	15 b8       	out	0x05, r1	; 5
 3f4:	85 e0       	ldi	r24, 0x05	; 5
 3f6:	8a 95       	dec	r24
 3f8:	f1 f7       	brne	.-4      	; 0x3f6 <SPI_initial+0x4>
 3fa:	00 00       	nop
	_delay_us(1);
	DSPI = 0x0A;						//Intensidad minima
 3fc:	8a e0       	ldi	r24, 0x0A	; 10
 3fe:	90 e0       	ldi	r25, 0x00	; 0
 400:	90 93 57 01 	sts	0x0157, r25
 404:	80 93 56 01 	sts	0x0156, r24
	SPI_MasterTransmit(DSPI);
 408:	0e 94 f4 01 	call	0x3e8	; 0x3e8 <SPI_MasterTransmit>
 40c:	85 e0       	ldi	r24, 0x05	; 5
 40e:	8a 95       	dec	r24
 410:	f1 f7       	brne	.-4      	; 0x40e <SPI_initial+0x1c>
 412:	00 00       	nop
	_delay_us(1);
	DSPI = 0x00;						//Decodificación de código B para dígitos 7-0
 414:	10 92 57 01 	sts	0x0157, r1
 418:	10 92 56 01 	sts	0x0156, r1
	SPI_MasterTransmit(DSPI);
 41c:	80 e0       	ldi	r24, 0x00	; 0
 41e:	90 e0       	ldi	r25, 0x00	; 0
 420:	0e 94 f4 01 	call	0x3e8	; 0x3e8 <SPI_MasterTransmit>
	PORTB = (1<<PORTB2);				//Indico fin de transferencia
 424:	84 e0       	ldi	r24, 0x04	; 4
 426:	85 b9       	out	0x05, r24	; 5
 428:	85 e0       	ldi	r24, 0x05	; 5
 42a:	8a 95       	dec	r24
 42c:	f1 f7       	brne	.-4      	; 0x42a <SPI_initial+0x38>
 42e:	00 00       	nop
	_delay_us(1);
	
	//////////////////////////////////////// Modo de decodificacion /////////////////////////////////////////
	
	PORTB = (0<<PORTB2);				//Indico inicio de transferencia
 430:	15 b8       	out	0x05, r1	; 5
 432:	85 e0       	ldi	r24, 0x05	; 5
 434:	8a 95       	dec	r24
 436:	f1 f7       	brne	.-4      	; 0x434 <SPI_initial+0x42>
 438:	00 00       	nop
	_delay_us(1);
	DSPI = 0x09;						//Decodificación de código B para dígitos 7-0
 43a:	89 e0       	ldi	r24, 0x09	; 9
 43c:	90 e0       	ldi	r25, 0x00	; 0
 43e:	90 93 57 01 	sts	0x0157, r25
 442:	80 93 56 01 	sts	0x0156, r24
	SPI_MasterTransmit(DSPI);
 446:	0e 94 f4 01 	call	0x3e8	; 0x3e8 <SPI_MasterTransmit>
 44a:	85 e0       	ldi	r24, 0x05	; 5
 44c:	8a 95       	dec	r24
 44e:	f1 f7       	brne	.-4      	; 0x44c <SPI_initial+0x5a>
 450:	00 00       	nop
	_delay_us(1);
	DSPI = 0xFF;						//Decodificación de código B para dígitos 7-0
 452:	8f ef       	ldi	r24, 0xFF	; 255
 454:	90 e0       	ldi	r25, 0x00	; 0
 456:	90 93 57 01 	sts	0x0157, r25
 45a:	80 93 56 01 	sts	0x0156, r24
	SPI_MasterTransmit(DSPI);
 45e:	0e 94 f4 01 	call	0x3e8	; 0x3e8 <SPI_MasterTransmit>
	PORTB = (1<<PORTB2);				//Indico fin de transferencia
 462:	84 e0       	ldi	r24, 0x04	; 4
 464:	85 b9       	out	0x05, r24	; 5
 466:	85 e0       	ldi	r24, 0x05	; 5
 468:	8a 95       	dec	r24
 46a:	f1 f7       	brne	.-4      	; 0x468 <SPI_initial+0x76>
 46c:	00 00       	nop
	_delay_us(1);
	
	////////////////////////////////////////// Cantidad de digitos /////////////////////////////////////////
	
	PORTB = (0<<PORTB2);				//Indico inicio de transferencia
 46e:	15 b8       	out	0x05, r1	; 5
 470:	85 e0       	ldi	r24, 0x05	; 5
 472:	8a 95       	dec	r24
 474:	f1 f7       	brne	.-4      	; 0x472 <SPI_initial+0x80>
 476:	00 00       	nop
	_delay_us(1);
	DSPI = 0x0B;						//Mostrar 3 digitos
 478:	8b e0       	ldi	r24, 0x0B	; 11
 47a:	90 e0       	ldi	r25, 0x00	; 0
 47c:	90 93 57 01 	sts	0x0157, r25
 480:	80 93 56 01 	sts	0x0156, r24
	SPI_MasterTransmit(DSPI);
 484:	0e 94 f4 01 	call	0x3e8	; 0x3e8 <SPI_MasterTransmit>
 488:	85 e0       	ldi	r24, 0x05	; 5
 48a:	8a 95       	dec	r24
 48c:	f1 f7       	brne	.-4      	; 0x48a <SPI_initial+0x98>
 48e:	00 00       	nop
	_delay_us(1);
	DSPI = 0x02;						//Decodificación de código B para dígitos 7-0
 490:	82 e0       	ldi	r24, 0x02	; 2
 492:	90 e0       	ldi	r25, 0x00	; 0
 494:	90 93 57 01 	sts	0x0157, r25
 498:	80 93 56 01 	sts	0x0156, r24
	SPI_MasterTransmit(DSPI);
 49c:	0e 94 f4 01 	call	0x3e8	; 0x3e8 <SPI_MasterTransmit>
	PORTB = (1<<PORTB2);				//Indico fin de transferencia
 4a0:	84 e0       	ldi	r24, 0x04	; 4
 4a2:	85 b9       	out	0x05, r24	; 5
 4a4:	85 e0       	ldi	r24, 0x05	; 5
 4a6:	8a 95       	dec	r24
 4a8:	f1 f7       	brne	.-4      	; 0x4a6 <SPI_initial+0xb4>
 4aa:	00 00       	nop
	_delay_us(1);
	
	////////////////////////////////////////// Modo de operacion /////////////////////////////////////////
	
	PORTB = (0<<PORTB2);				//Indico inicio de transferencia
 4ac:	15 b8       	out	0x05, r1	; 5
 4ae:	85 e0       	ldi	r24, 0x05	; 5
 4b0:	8a 95       	dec	r24
 4b2:	f1 f7       	brne	.-4      	; 0x4b0 <SPI_initial+0xbe>
 4b4:	00 00       	nop
	_delay_us(1);
	DSPI = 0x0C;						//Opercion normal
 4b6:	8c e0       	ldi	r24, 0x0C	; 12
 4b8:	90 e0       	ldi	r25, 0x00	; 0
 4ba:	90 93 57 01 	sts	0x0157, r25
 4be:	80 93 56 01 	sts	0x0156, r24
	SPI_MasterTransmit(DSPI);
 4c2:	0e 94 f4 01 	call	0x3e8	; 0x3e8 <SPI_MasterTransmit>
 4c6:	85 e0       	ldi	r24, 0x05	; 5
 4c8:	8a 95       	dec	r24
 4ca:	f1 f7       	brne	.-4      	; 0x4c8 <SPI_initial+0xd6>
 4cc:	00 00       	nop
	_delay_us(1);
	DSPI = 0x01;						//Decodificación de código B para dígitos 7-0
 4ce:	81 e0       	ldi	r24, 0x01	; 1
 4d0:	90 e0       	ldi	r25, 0x00	; 0
 4d2:	90 93 57 01 	sts	0x0157, r25
 4d6:	80 93 56 01 	sts	0x0156, r24
	SPI_MasterTransmit(DSPI);
 4da:	0e 94 f4 01 	call	0x3e8	; 0x3e8 <SPI_MasterTransmit>
	PORTB = (1<<PORTB2);				//Indico fin de transferencia
 4de:	84 e0       	ldi	r24, 0x04	; 4
 4e0:	85 b9       	out	0x05, r24	; 5
 4e2:	85 e0       	ldi	r24, 0x05	; 5
 4e4:	8a 95       	dec	r24
 4e6:	f1 f7       	brne	.-4      	; 0x4e4 <SPI_initial+0xf2>
 4e8:	00 00       	nop
	_delay_us(1);
	
	////////////////////////////////////////// Modo de testeo /////////////////////////////////////////
	
	PORTB = (0<<PORTB2);				//Indico inicio de transferencia
 4ea:	15 b8       	out	0x05, r1	; 5
 4ec:	85 e0       	ldi	r24, 0x05	; 5
 4ee:	8a 95       	dec	r24
 4f0:	f1 f7       	brne	.-4      	; 0x4ee <SPI_initial+0xfc>
 4f2:	00 00       	nop
	_delay_us(1);
	DSPI = 0x0F;						//Opercion normal
 4f4:	8f e0       	ldi	r24, 0x0F	; 15
 4f6:	90 e0       	ldi	r25, 0x00	; 0
 4f8:	90 93 57 01 	sts	0x0157, r25
 4fc:	80 93 56 01 	sts	0x0156, r24
	SPI_MasterTransmit(DSPI);
 500:	0e 94 f4 01 	call	0x3e8	; 0x3e8 <SPI_MasterTransmit>
 504:	85 e0       	ldi	r24, 0x05	; 5
 506:	8a 95       	dec	r24
 508:	f1 f7       	brne	.-4      	; 0x506 <SPI_initial+0x114>
 50a:	00 00       	nop
	_delay_us(1);
	DSPI = 0x00;						//Decodificación de código B para dígitos 7-0
 50c:	10 92 57 01 	sts	0x0157, r1
 510:	10 92 56 01 	sts	0x0156, r1
	SPI_MasterTransmit(DSPI);
 514:	80 e0       	ldi	r24, 0x00	; 0
 516:	90 e0       	ldi	r25, 0x00	; 0
 518:	0e 94 f4 01 	call	0x3e8	; 0x3e8 <SPI_MasterTransmit>
	PORTB = (1<<PORTB2);				//Indico fin de transferencia
 51c:	84 e0       	ldi	r24, 0x04	; 4
 51e:	85 b9       	out	0x05, r24	; 5
 520:	85 e0       	ldi	r24, 0x05	; 5
 522:	8a 95       	dec	r24
 524:	f1 f7       	brne	.-4      	; 0x522 <SPI_initial+0x130>
 526:	00 00       	nop
	_delay_us(1);
	
	////////////////////////////////////////// Inician todos apagados /////////////////////////////////////////
	
	PORTB = (0<<PORTB2);				//Indico inicio de transferencia
 528:	15 b8       	out	0x05, r1	; 5
 52a:	85 e0       	ldi	r24, 0x05	; 5
 52c:	8a 95       	dec	r24
 52e:	f1 f7       	brne	.-4      	; 0x52c <SPI_initial+0x13a>
 530:	00 00       	nop
	_delay_us(1);
	DSPI = 0x01;						//Bit 0
 532:	81 e0       	ldi	r24, 0x01	; 1
 534:	90 e0       	ldi	r25, 0x00	; 0
 536:	90 93 57 01 	sts	0x0157, r25
 53a:	80 93 56 01 	sts	0x0156, r24
	SPI_MasterTransmit(DSPI);
 53e:	0e 94 f4 01 	call	0x3e8	; 0x3e8 <SPI_MasterTransmit>
 542:	85 e0       	ldi	r24, 0x05	; 5
 544:	8a 95       	dec	r24
 546:	f1 f7       	brne	.-4      	; 0x544 <SPI_initial+0x152>
 548:	00 00       	nop
	_delay_us(1);
	DSPI = 0xFF;
 54a:	8f ef       	ldi	r24, 0xFF	; 255
 54c:	90 e0       	ldi	r25, 0x00	; 0
 54e:	90 93 57 01 	sts	0x0157, r25
 552:	80 93 56 01 	sts	0x0156, r24
	SPI_MasterTransmit(DSPI);
 556:	0e 94 f4 01 	call	0x3e8	; 0x3e8 <SPI_MasterTransmit>
	PORTB = (1<<PORTB2);				//Indico fin de transferencia
 55a:	84 e0       	ldi	r24, 0x04	; 4
 55c:	85 b9       	out	0x05, r24	; 5
 55e:	85 e0       	ldi	r24, 0x05	; 5
 560:	8a 95       	dec	r24
 562:	f1 f7       	brne	.-4      	; 0x560 <SPI_initial+0x16e>
 564:	00 00       	nop
	_delay_us(1);
	
	PORTB = (0<<PORTB2);				//Indico inicio de transferencia
 566:	15 b8       	out	0x05, r1	; 5
 568:	85 e0       	ldi	r24, 0x05	; 5
 56a:	8a 95       	dec	r24
 56c:	f1 f7       	brne	.-4      	; 0x56a <SPI_initial+0x178>
 56e:	00 00       	nop
	_delay_us(1);
	DSPI = 0x02;						//Bit 1
 570:	82 e0       	ldi	r24, 0x02	; 2
 572:	90 e0       	ldi	r25, 0x00	; 0
 574:	90 93 57 01 	sts	0x0157, r25
 578:	80 93 56 01 	sts	0x0156, r24
	SPI_MasterTransmit(DSPI);
 57c:	0e 94 f4 01 	call	0x3e8	; 0x3e8 <SPI_MasterTransmit>
 580:	85 e0       	ldi	r24, 0x05	; 5
 582:	8a 95       	dec	r24
 584:	f1 f7       	brne	.-4      	; 0x582 <SPI_initial+0x190>
 586:	00 00       	nop
	_delay_us(1);
	DSPI = 0xFF;
 588:	8f ef       	ldi	r24, 0xFF	; 255
 58a:	90 e0       	ldi	r25, 0x00	; 0
 58c:	90 93 57 01 	sts	0x0157, r25
 590:	80 93 56 01 	sts	0x0156, r24
	SPI_MasterTransmit(DSPI);
 594:	0e 94 f4 01 	call	0x3e8	; 0x3e8 <SPI_MasterTransmit>
	PORTB = (1<<PORTB2);				//Indico fin de transferencia
 598:	84 e0       	ldi	r24, 0x04	; 4
 59a:	85 b9       	out	0x05, r24	; 5
 59c:	85 e0       	ldi	r24, 0x05	; 5
 59e:	8a 95       	dec	r24
 5a0:	f1 f7       	brne	.-4      	; 0x59e <SPI_initial+0x1ac>
 5a2:	00 00       	nop
	_delay_us(1);
	
	PORTB = (0<<PORTB2);				//Indico inicio de transferencia
 5a4:	15 b8       	out	0x05, r1	; 5
 5a6:	85 e0       	ldi	r24, 0x05	; 5
 5a8:	8a 95       	dec	r24
 5aa:	f1 f7       	brne	.-4      	; 0x5a8 <SPI_initial+0x1b6>
 5ac:	00 00       	nop
	_delay_us(1);
	DSPI = 0x03;						//Bit 2
 5ae:	83 e0       	ldi	r24, 0x03	; 3
 5b0:	90 e0       	ldi	r25, 0x00	; 0
 5b2:	90 93 57 01 	sts	0x0157, r25
 5b6:	80 93 56 01 	sts	0x0156, r24
	SPI_MasterTransmit(DSPI);
 5ba:	0e 94 f4 01 	call	0x3e8	; 0x3e8 <SPI_MasterTransmit>
 5be:	85 e0       	ldi	r24, 0x05	; 5
 5c0:	8a 95       	dec	r24
 5c2:	f1 f7       	brne	.-4      	; 0x5c0 <SPI_initial+0x1ce>
 5c4:	00 00       	nop
	_delay_us(1);
	DSPI = 0xFF;
 5c6:	8f ef       	ldi	r24, 0xFF	; 255
 5c8:	90 e0       	ldi	r25, 0x00	; 0
 5ca:	90 93 57 01 	sts	0x0157, r25
 5ce:	80 93 56 01 	sts	0x0156, r24
	SPI_MasterTransmit(DSPI);
 5d2:	0e 94 f4 01 	call	0x3e8	; 0x3e8 <SPI_MasterTransmit>
	PORTB = (1<<PORTB2);				//Indico fin de transferencia
 5d6:	84 e0       	ldi	r24, 0x04	; 4
 5d8:	85 b9       	out	0x05, r24	; 5
 5da:	85 e0       	ldi	r24, 0x05	; 5
 5dc:	8a 95       	dec	r24
 5de:	f1 f7       	brne	.-4      	; 0x5dc <SPI_initial+0x1ea>
 5e0:	00 00       	nop
 5e2:	08 95       	ret

000005e4 <onoff>:
	OCR0B = Tension_Deseada*199/100;			// PD5 salida PWM OC0B
}
//######################################################### FUNCION DE MOSTRAR ON/OFF ##################################################################################################################

void onoff ()
{
 5e4:	cf 92       	push	r12
 5e6:	df 92       	push	r13
 5e8:	ef 92       	push	r14
 5ea:	ff 92       	push	r15
 5ec:	0f 93       	push	r16
 5ee:	1f 93       	push	r17
 5f0:	cf 93       	push	r28
 5f2:	df 93       	push	r29
 5f4:	cd b7       	in	r28, 0x3d	; 61
 5f6:	de b7       	in	r29, 0x3e	; 62
 5f8:	61 97       	sbiw	r28, 0x11	; 17
 5fa:	0f b6       	in	r0, 0x3f	; 63
 5fc:	f8 94       	cli
 5fe:	de bf       	out	0x3e, r29	; 62
 600:	0f be       	out	0x3f, r0	; 63
 602:	cd bf       	out	0x3d, r28	; 61
	char on[]="PWM on\n";
 604:	88 e0       	ldi	r24, 0x08	; 8
 606:	e9 e1       	ldi	r30, 0x19	; 25
 608:	f1 e0       	ldi	r31, 0x01	; 1
 60a:	de 01       	movw	r26, r28
 60c:	11 96       	adiw	r26, 0x01	; 1
 60e:	01 90       	ld	r0, Z+
 610:	0d 92       	st	X+, r0
 612:	8a 95       	dec	r24
 614:	e1 f7       	brne	.-8      	; 0x60e <onoff+0x2a>
	char off[]="PWM off\n";
 616:	89 e0       	ldi	r24, 0x09	; 9
 618:	e1 e2       	ldi	r30, 0x21	; 33
 61a:	f1 e0       	ldi	r31, 0x01	; 1
 61c:	de 01       	movw	r26, r28
 61e:	19 96       	adiw	r26, 0x09	; 9
 620:	01 90       	ld	r0, Z+
 622:	0d 92       	st	X+, r0
 624:	8a 95       	dec	r24
 626:	e1 f7       	brne	.-8      	; 0x620 <onoff+0x3c>
	
	Contoff++;
 628:	80 91 52 01 	lds	r24, 0x0152
 62c:	90 91 53 01 	lds	r25, 0x0153
 630:	01 96       	adiw	r24, 0x01	; 1
 632:	90 93 53 01 	sts	0x0153, r25
 636:	80 93 52 01 	sts	0x0152, r24
	
	if ((Contoff>1))
 63a:	82 30       	cpi	r24, 0x02	; 2
 63c:	91 05       	cpc	r25, r1
 63e:	2c f0       	brlt	.+10     	; 0x64a <onoff+0x66>
	{
		Contoff=0;
 640:	10 92 53 01 	sts	0x0153, r1
 644:	10 92 52 01 	sts	0x0152, r1
 648:	38 c0       	rjmp	.+112    	; 0x6ba <onoff+0xd6>
	}
	
	if ((Contoff == 1))
 64a:	01 97       	sbiw	r24, 0x01	; 1
 64c:	81 f5       	brne	.+96     	; 0x6ae <onoff+0xca>
	{
		for (i=0;i<=strlen(on);i++)
 64e:	10 92 69 01 	sts	0x0169, r1
 652:	10 92 68 01 	sts	0x0168, r1
 656:	80 e0       	ldi	r24, 0x00	; 0
 658:	90 e0       	ldi	r25, 0x00	; 0
		{
			while ( !(UCSR0A &(1<<UDRE0)));
 65a:	00 ec       	ldi	r16, 0xC0	; 192
 65c:	10 e0       	ldi	r17, 0x00	; 0
			UDR0=on[i];
 65e:	9e 01       	movw	r18, r28
 660:	2f 5f       	subi	r18, 0xFF	; 255
 662:	3f 4f       	sbci	r19, 0xFF	; 255
 664:	79 01       	movw	r14, r18
 666:	0f 2e       	mov	r0, r31
 668:	f6 ec       	ldi	r31, 0xC6	; 198
 66a:	cf 2e       	mov	r12, r31
 66c:	d1 2c       	mov	r13, r1
 66e:	f0 2d       	mov	r31, r0
	
	if ((Contoff == 1))
	{
		for (i=0;i<=strlen(on);i++)
		{
			while ( !(UCSR0A &(1<<UDRE0)));
 670:	d8 01       	movw	r26, r16
 672:	2c 91       	ld	r18, X
 674:	25 ff       	sbrs	r18, 5
 676:	fc cf       	rjmp	.-8      	; 0x670 <onoff+0x8c>
			UDR0=on[i];
 678:	f7 01       	movw	r30, r14
 67a:	e8 0f       	add	r30, r24
 67c:	f9 1f       	adc	r31, r25
 67e:	80 81       	ld	r24, Z
 680:	f6 01       	movw	r30, r12
 682:	80 83       	st	Z, r24
			SPI_initial();
 684:	0e 94 f9 01 	call	0x3f2	; 0x3f2 <SPI_initial>
		Contoff=0;
	}
	
	if ((Contoff == 1))
	{
		for (i=0;i<=strlen(on);i++)
 688:	80 91 68 01 	lds	r24, 0x0168
 68c:	90 91 69 01 	lds	r25, 0x0169
 690:	01 96       	adiw	r24, 0x01	; 1
 692:	90 93 69 01 	sts	0x0169, r25
 696:	80 93 68 01 	sts	0x0168, r24
 69a:	f7 01       	movw	r30, r14
 69c:	01 90       	ld	r0, Z+
 69e:	00 20       	and	r0, r0
 6a0:	e9 f7       	brne	.-6      	; 0x69c <onoff+0xb8>
 6a2:	31 97       	sbiw	r30, 0x01	; 1
 6a4:	ee 19       	sub	r30, r14
 6a6:	ff 09       	sbc	r31, r15
 6a8:	e8 17       	cp	r30, r24
 6aa:	f9 07       	cpc	r31, r25
 6ac:	08 f7       	brcc	.-62     	; 0x670 <onoff+0x8c>
			UDR0=on[i];
			SPI_initial();
		}
	}
	
	if ((Contoff == 0))
 6ae:	80 91 52 01 	lds	r24, 0x0152
 6b2:	90 91 53 01 	lds	r25, 0x0153
 6b6:	89 2b       	or	r24, r25
 6b8:	51 f5       	brne	.+84     	; 0x70e <onoff+0x12a>
	{
		for (i=0;i<=strlen(off);i++)
 6ba:	10 92 69 01 	sts	0x0169, r1
 6be:	10 92 68 01 	sts	0x0168, r1
 6c2:	a0 e0       	ldi	r26, 0x00	; 0
 6c4:	b0 e0       	ldi	r27, 0x00	; 0
		{
			while ( !(UCSR0A &(1<<UDRE0)));
 6c6:	e0 ec       	ldi	r30, 0xC0	; 192
 6c8:	f0 e0       	ldi	r31, 0x00	; 0
			UDR0=off[i];
 6ca:	9e 01       	movw	r18, r28
 6cc:	27 5f       	subi	r18, 0xF7	; 247
 6ce:	3f 4f       	sbci	r19, 0xFF	; 255
 6d0:	46 ec       	ldi	r20, 0xC6	; 198
 6d2:	50 e0       	ldi	r21, 0x00	; 0
 6d4:	01 c0       	rjmp	.+2      	; 0x6d8 <onoff+0xf4>
		}
	}
	
	if ((Contoff == 0))
	{
		for (i=0;i<=strlen(off);i++)
 6d6:	dc 01       	movw	r26, r24
		{
			while ( !(UCSR0A &(1<<UDRE0)));
 6d8:	80 81       	ld	r24, Z
 6da:	85 ff       	sbrs	r24, 5
 6dc:	fd cf       	rjmp	.-6      	; 0x6d8 <onoff+0xf4>
			UDR0=off[i];
 6de:	a2 0f       	add	r26, r18
 6e0:	b3 1f       	adc	r27, r19
 6e2:	8c 91       	ld	r24, X
 6e4:	da 01       	movw	r26, r20
 6e6:	8c 93       	st	X, r24
		}
	}
	
	if ((Contoff == 0))
	{
		for (i=0;i<=strlen(off);i++)
 6e8:	80 91 68 01 	lds	r24, 0x0168
 6ec:	90 91 69 01 	lds	r25, 0x0169
 6f0:	01 96       	adiw	r24, 0x01	; 1
 6f2:	90 93 69 01 	sts	0x0169, r25
 6f6:	80 93 68 01 	sts	0x0168, r24
 6fa:	d9 01       	movw	r26, r18
 6fc:	0d 90       	ld	r0, X+
 6fe:	00 20       	and	r0, r0
 700:	e9 f7       	brne	.-6      	; 0x6fc <onoff+0x118>
 702:	11 97       	sbiw	r26, 0x01	; 1
 704:	a2 1b       	sub	r26, r18
 706:	b3 0b       	sbc	r27, r19
 708:	a8 17       	cp	r26, r24
 70a:	b9 07       	cpc	r27, r25
 70c:	20 f7       	brcc	.-56     	; 0x6d6 <onoff+0xf2>
			UDR0=off[i];
		}
		
	}
	return;
}
 70e:	61 96       	adiw	r28, 0x11	; 17
 710:	0f b6       	in	r0, 0x3f	; 63
 712:	f8 94       	cli
 714:	de bf       	out	0x3e, r29	; 62
 716:	0f be       	out	0x3f, r0	; 63
 718:	cd bf       	out	0x3d, r28	; 61
 71a:	df 91       	pop	r29
 71c:	cf 91       	pop	r28
 71e:	1f 91       	pop	r17
 720:	0f 91       	pop	r16
 722:	ff 90       	pop	r15
 724:	ef 90       	pop	r14
 726:	df 90       	pop	r13
 728:	cf 90       	pop	r12
 72a:	08 95       	ret

0000072c <Mostrar_Tensiones>:
	PORTB = (1<<PORTB2);				//Indico fin de transferencia
	_delay_us(1);
}

void Mostrar_Tensiones()
{
 72c:	cf 93       	push	r28
 72e:	df 93       	push	r29
 730:	cd b7       	in	r28, 0x3d	; 61
 732:	de b7       	in	r29, 0x3e	; 62
 734:	6f 97       	sbiw	r28, 0x1f	; 31
 736:	0f b6       	in	r0, 0x3f	; 63
 738:	f8 94       	cli
 73a:	de bf       	out	0x3e, r29	; 62
 73c:	0f be       	out	0x3f, r0	; 63
 73e:	cd bf       	out	0x3d, r28	; 61
	//int Tension_Real = ADC_Volt*(10*TENSIONmax)/1023;
	int Tension_Real = 150;
	char Medicion_msj[]="Tension Real:";
 740:	8e e0       	ldi	r24, 0x0E	; 14
 742:	ea e2       	ldi	r30, 0x2A	; 42
 744:	f1 e0       	ldi	r31, 0x01	; 1
 746:	de 01       	movw	r26, r28
 748:	11 96       	adiw	r26, 0x01	; 1
 74a:	01 90       	ld	r0, Z+
 74c:	0d 92       	st	X+, r0
 74e:	8a 95       	dec	r24
 750:	e1 f7       	brne	.-8      	; 0x74a <Mostrar_Tensiones+0x1e>
	char UDeseada_msj[]="Tension Deseada:";
 752:	81 e1       	ldi	r24, 0x11	; 17
 754:	e8 e3       	ldi	r30, 0x38	; 56
 756:	f1 e0       	ldi	r31, 0x01	; 1
 758:	de 01       	movw	r26, r28
 75a:	1f 96       	adiw	r26, 0x0f	; 15
 75c:	01 90       	ld	r0, Z+
 75e:	0d 92       	st	X+, r0
 760:	8a 95       	dec	r24
 762:	e1 f7       	brne	.-8      	; 0x75c <Mostrar_Tensiones+0x30>
	
	for (i=0;i<=strlen(Medicion_msj);i++)
 764:	10 92 69 01 	sts	0x0169, r1
 768:	10 92 68 01 	sts	0x0168, r1
 76c:	a0 e0       	ldi	r26, 0x00	; 0
 76e:	b0 e0       	ldi	r27, 0x00	; 0
	{
		while ( !(UCSR0A &(1<<UDRE0)));
 770:	e0 ec       	ldi	r30, 0xC0	; 192
 772:	f0 e0       	ldi	r31, 0x00	; 0
		UDR0=Medicion_msj[i];
 774:	9e 01       	movw	r18, r28
 776:	2f 5f       	subi	r18, 0xFF	; 255
 778:	3f 4f       	sbci	r19, 0xFF	; 255
 77a:	46 ec       	ldi	r20, 0xC6	; 198
 77c:	50 e0       	ldi	r21, 0x00	; 0
 77e:	01 c0       	rjmp	.+2      	; 0x782 <Mostrar_Tensiones+0x56>
	//int Tension_Real = ADC_Volt*(10*TENSIONmax)/1023;
	int Tension_Real = 150;
	char Medicion_msj[]="Tension Real:";
	char UDeseada_msj[]="Tension Deseada:";
	
	for (i=0;i<=strlen(Medicion_msj);i++)
 780:	dc 01       	movw	r26, r24
	{
		while ( !(UCSR0A &(1<<UDRE0)));
 782:	80 81       	ld	r24, Z
 784:	85 ff       	sbrs	r24, 5
 786:	fd cf       	rjmp	.-6      	; 0x782 <Mostrar_Tensiones+0x56>
		UDR0=Medicion_msj[i];
 788:	a2 0f       	add	r26, r18
 78a:	b3 1f       	adc	r27, r19
 78c:	8c 91       	ld	r24, X
 78e:	da 01       	movw	r26, r20
 790:	8c 93       	st	X, r24
	//int Tension_Real = ADC_Volt*(10*TENSIONmax)/1023;
	int Tension_Real = 150;
	char Medicion_msj[]="Tension Real:";
	char UDeseada_msj[]="Tension Deseada:";
	
	for (i=0;i<=strlen(Medicion_msj);i++)
 792:	80 91 68 01 	lds	r24, 0x0168
 796:	90 91 69 01 	lds	r25, 0x0169
 79a:	01 96       	adiw	r24, 0x01	; 1
 79c:	90 93 69 01 	sts	0x0169, r25
 7a0:	80 93 68 01 	sts	0x0168, r24
 7a4:	d9 01       	movw	r26, r18
 7a6:	0d 90       	ld	r0, X+
 7a8:	00 20       	and	r0, r0
 7aa:	e9 f7       	brne	.-6      	; 0x7a6 <Mostrar_Tensiones+0x7a>
 7ac:	11 97       	sbiw	r26, 0x01	; 1
 7ae:	a2 1b       	sub	r26, r18
 7b0:	b3 0b       	sbc	r27, r19
 7b2:	a8 17       	cp	r26, r24
 7b4:	b9 07       	cpc	r27, r25
 7b6:	20 f7       	brcc	.-56     	; 0x780 <Mostrar_Tensiones+0x54>
	{
		while ( !(UCSR0A &(1<<UDRE0)));
		UDR0=Medicion_msj[i];
	}
	
	cen = (Tension_Real/100);
 7b8:	81 e0       	ldi	r24, 0x01	; 1
 7ba:	90 e0       	ldi	r25, 0x00	; 0
 7bc:	90 93 4f 01 	sts	0x014F, r25
 7c0:	80 93 4e 01 	sts	0x014E, r24
	PORTB = (0<<PORTB2);				//Indico inicio de transferencia
 7c4:	15 b8       	out	0x05, r1	; 5
 7c6:	b5 e0       	ldi	r27, 0x05	; 5
 7c8:	ba 95       	dec	r27
 7ca:	f1 f7       	brne	.-4      	; 0x7c8 <Mostrar_Tensiones+0x9c>
 7cc:	00 00       	nop
	_delay_us(1);
	DSPI = 0x03;						//Bit 2
 7ce:	83 e0       	ldi	r24, 0x03	; 3
 7d0:	90 e0       	ldi	r25, 0x00	; 0
 7d2:	90 93 57 01 	sts	0x0157, r25
 7d6:	80 93 56 01 	sts	0x0156, r24
	SPI_MasterTransmit(DSPI);
 7da:	0e 94 f4 01 	call	0x3e8	; 0x3e8 <SPI_MasterTransmit>
 7de:	85 e0       	ldi	r24, 0x05	; 5
 7e0:	8a 95       	dec	r24
 7e2:	f1 f7       	brne	.-4      	; 0x7e0 <Mostrar_Tensiones+0xb4>
 7e4:	00 00       	nop
	_delay_us(1);
	DSPI = (cen);						//Envio decena al MAX
 7e6:	80 91 4e 01 	lds	r24, 0x014E
 7ea:	90 91 4f 01 	lds	r25, 0x014F
 7ee:	90 93 57 01 	sts	0x0157, r25
 7f2:	80 93 56 01 	sts	0x0156, r24
	SPI_MasterTransmit(DSPI);
 7f6:	0e 94 f4 01 	call	0x3e8	; 0x3e8 <SPI_MasterTransmit>
	PORTB = (1<<PORTB2);				//Indico fin de transferencia
 7fa:	84 e0       	ldi	r24, 0x04	; 4
 7fc:	85 b9       	out	0x05, r24	; 5
 7fe:	a5 e0       	ldi	r26, 0x05	; 5
 800:	aa 95       	dec	r26
 802:	f1 f7       	brne	.-4      	; 0x800 <Mostrar_Tensiones+0xd4>
 804:	00 00       	nop
	_delay_us(1);
	
	UDR0 = cen + 48;					//Envio por puerto serie la decena
 806:	80 91 4e 01 	lds	r24, 0x014E
 80a:	80 5d       	subi	r24, 0xD0	; 208
 80c:	80 93 c6 00 	sts	0x00C6, r24
	while(!(UCSR0A & (1<<UDRE0)));		// Espera a que se envíe el dato
 810:	e0 ec       	ldi	r30, 0xC0	; 192
 812:	f0 e0       	ldi	r31, 0x00	; 0
 814:	80 81       	ld	r24, Z
 816:	85 ff       	sbrs	r24, 5
 818:	fd cf       	rjmp	.-6      	; 0x814 <Mostrar_Tensiones+0xe8>
	
	Resto = (Tension_Real%100);
 81a:	82 e3       	ldi	r24, 0x32	; 50
 81c:	80 93 65 01 	sts	0x0165, r24
	dec = (Resto/10);
 820:	85 e0       	ldi	r24, 0x05	; 5
 822:	90 e0       	ldi	r25, 0x00	; 0
 824:	90 93 4d 01 	sts	0x014D, r25
 828:	80 93 4c 01 	sts	0x014C, r24
	PORTB = (0<<PORTB2);				//Indico inicio de transferencia
 82c:	15 b8       	out	0x05, r1	; 5
 82e:	b5 e0       	ldi	r27, 0x05	; 5
 830:	ba 95       	dec	r27
 832:	f1 f7       	brne	.-4      	; 0x830 <Mostrar_Tensiones+0x104>
 834:	00 00       	nop
	_delay_us(1);
	DSPI = 0x02;						//Bit 1
 836:	82 e0       	ldi	r24, 0x02	; 2
 838:	90 e0       	ldi	r25, 0x00	; 0
 83a:	90 93 57 01 	sts	0x0157, r25
 83e:	80 93 56 01 	sts	0x0156, r24
	SPI_MasterTransmit(DSPI);
 842:	0e 94 f4 01 	call	0x3e8	; 0x3e8 <SPI_MasterTransmit>
 846:	85 e0       	ldi	r24, 0x05	; 5
 848:	8a 95       	dec	r24
 84a:	f1 f7       	brne	.-4      	; 0x848 <Mostrar_Tensiones+0x11c>
 84c:	00 00       	nop
	_delay_us(1);
	DSPI = (0xF0 + dec);						//Envio la unidad al MAX
 84e:	80 91 4c 01 	lds	r24, 0x014C
 852:	90 91 4d 01 	lds	r25, 0x014D
 856:	80 51       	subi	r24, 0x10	; 16
 858:	9f 4f       	sbci	r25, 0xFF	; 255
 85a:	90 93 57 01 	sts	0x0157, r25
 85e:	80 93 56 01 	sts	0x0156, r24
	SPI_MasterTransmit(DSPI);
 862:	0e 94 f4 01 	call	0x3e8	; 0x3e8 <SPI_MasterTransmit>
	PORTB = (1<<PORTB2);				//Indico fin de transferencia
 866:	84 e0       	ldi	r24, 0x04	; 4
 868:	85 b9       	out	0x05, r24	; 5
 86a:	a5 e0       	ldi	r26, 0x05	; 5
 86c:	aa 95       	dec	r26
 86e:	f1 f7       	brne	.-4      	; 0x86c <Mostrar_Tensiones+0x140>
 870:	00 00       	nop
	_delay_us(1);
	
	UDR0 = dec + 48;					//Envio por puerto serie la unidad
 872:	80 91 4c 01 	lds	r24, 0x014C
 876:	80 5d       	subi	r24, 0xD0	; 208
 878:	80 93 c6 00 	sts	0x00C6, r24
	while(!(UCSR0A & (1<<UDRE0)));
 87c:	e0 ec       	ldi	r30, 0xC0	; 192
 87e:	f0 e0       	ldi	r31, 0x00	; 0
 880:	80 81       	ld	r24, Z
 882:	85 ff       	sbrs	r24, 5
 884:	fd cf       	rjmp	.-6      	; 0x880 <Mostrar_Tensiones+0x154>
	
	UDR0 = 0x2C;						//Envio ","
 886:	8c e2       	ldi	r24, 0x2C	; 44
 888:	80 93 c6 00 	sts	0x00C6, r24
	while(!(UCSR0A & (1<<UDRE0)));
 88c:	e0 ec       	ldi	r30, 0xC0	; 192
 88e:	f0 e0       	ldi	r31, 0x00	; 0
 890:	80 81       	ld	r24, Z
 892:	85 ff       	sbrs	r24, 5
 894:	fd cf       	rjmp	.-6      	; 0x890 <Mostrar_Tensiones+0x164>
	
	uni = (Resto%10);
 896:	80 91 65 01 	lds	r24, 0x0165
 89a:	9d ec       	ldi	r25, 0xCD	; 205
 89c:	89 9f       	mul	r24, r25
 89e:	91 2d       	mov	r25, r1
 8a0:	11 24       	eor	r1, r1
 8a2:	96 95       	lsr	r25
 8a4:	96 95       	lsr	r25
 8a6:	96 95       	lsr	r25
 8a8:	99 0f       	add	r25, r25
 8aa:	29 2f       	mov	r18, r25
 8ac:	22 0f       	add	r18, r18
 8ae:	22 0f       	add	r18, r18
 8b0:	92 0f       	add	r25, r18
 8b2:	89 1b       	sub	r24, r25
 8b4:	90 e0       	ldi	r25, 0x00	; 0
 8b6:	90 93 4b 01 	sts	0x014B, r25
 8ba:	80 93 4a 01 	sts	0x014A, r24
	PORTB = (0<<PORTB2);				//Indico inicio de transferencia
 8be:	15 b8       	out	0x05, r1	; 5
 8c0:	b5 e0       	ldi	r27, 0x05	; 5
 8c2:	ba 95       	dec	r27
 8c4:	f1 f7       	brne	.-4      	; 0x8c2 <Mostrar_Tensiones+0x196>
 8c6:	00 00       	nop
	_delay_us(1);
	DSPI = 0x01;						//Bit 0
 8c8:	81 e0       	ldi	r24, 0x01	; 1
 8ca:	90 e0       	ldi	r25, 0x00	; 0
 8cc:	90 93 57 01 	sts	0x0157, r25
 8d0:	80 93 56 01 	sts	0x0156, r24
	SPI_MasterTransmit(DSPI);
 8d4:	0e 94 f4 01 	call	0x3e8	; 0x3e8 <SPI_MasterTransmit>
 8d8:	85 e0       	ldi	r24, 0x05	; 5
 8da:	8a 95       	dec	r24
 8dc:	f1 f7       	brne	.-4      	; 0x8da <Mostrar_Tensiones+0x1ae>
 8de:	00 00       	nop
	_delay_us(1);
	DSPI = (uni);						//Envio primer decimal al MAX
 8e0:	80 91 4a 01 	lds	r24, 0x014A
 8e4:	90 91 4b 01 	lds	r25, 0x014B
 8e8:	90 93 57 01 	sts	0x0157, r25
 8ec:	80 93 56 01 	sts	0x0156, r24
	SPI_MasterTransmit(DSPI);
 8f0:	0e 94 f4 01 	call	0x3e8	; 0x3e8 <SPI_MasterTransmit>
	PORTB = (1<<PORTB2);				//Indico fin de transferencia
 8f4:	84 e0       	ldi	r24, 0x04	; 4
 8f6:	85 b9       	out	0x05, r24	; 5
 8f8:	a5 e0       	ldi	r26, 0x05	; 5
 8fa:	aa 95       	dec	r26
 8fc:	f1 f7       	brne	.-4      	; 0x8fa <Mostrar_Tensiones+0x1ce>
 8fe:	00 00       	nop
	_delay_us(1);
	
	UDR0 = (uni + 48);					//Envio por puerto serie primer decimal
 900:	80 91 4a 01 	lds	r24, 0x014A
 904:	80 5d       	subi	r24, 0xD0	; 208
 906:	80 93 c6 00 	sts	0x00C6, r24
	while(!(UCSR0A & (1<<UDRE0)));
 90a:	e0 ec       	ldi	r30, 0xC0	; 192
 90c:	f0 e0       	ldi	r31, 0x00	; 0
 90e:	80 81       	ld	r24, Z
 910:	85 ff       	sbrs	r24, 5
 912:	fd cf       	rjmp	.-6      	; 0x90e <__stack+0xf>
	UDR0 = 10;
 914:	8a e0       	ldi	r24, 0x0A	; 10
 916:	80 93 c6 00 	sts	0x00C6, r24
	while(!(UCSR0A & (1<<UDRE0)));
 91a:	e0 ec       	ldi	r30, 0xC0	; 192
 91c:	f0 e0       	ldi	r31, 0x00	; 0
 91e:	80 81       	ld	r24, Z
 920:	85 ff       	sbrs	r24, 5
 922:	fd cf       	rjmp	.-6      	; 0x91e <__stack+0x1f>
	
	for (i=0;i<=strlen(UDeseada_msj);i++)
 924:	10 92 69 01 	sts	0x0169, r1
 928:	10 92 68 01 	sts	0x0168, r1
 92c:	a0 e0       	ldi	r26, 0x00	; 0
 92e:	b0 e0       	ldi	r27, 0x00	; 0
	{
		while ( !(UCSR0A &(1<<UDRE0)));
 930:	e0 ec       	ldi	r30, 0xC0	; 192
 932:	f0 e0       	ldi	r31, 0x00	; 0
		UDR0=UDeseada_msj[i];
 934:	9e 01       	movw	r18, r28
 936:	21 5f       	subi	r18, 0xF1	; 241
 938:	3f 4f       	sbci	r19, 0xFF	; 255
 93a:	46 ec       	ldi	r20, 0xC6	; 198
 93c:	50 e0       	ldi	r21, 0x00	; 0
 93e:	01 c0       	rjmp	.+2      	; 0x942 <__stack+0x43>
	UDR0 = (uni + 48);					//Envio por puerto serie primer decimal
	while(!(UCSR0A & (1<<UDRE0)));
	UDR0 = 10;
	while(!(UCSR0A & (1<<UDRE0)));
	
	for (i=0;i<=strlen(UDeseada_msj);i++)
 940:	dc 01       	movw	r26, r24
	{
		while ( !(UCSR0A &(1<<UDRE0)));
 942:	80 81       	ld	r24, Z
 944:	85 ff       	sbrs	r24, 5
 946:	fd cf       	rjmp	.-6      	; 0x942 <__stack+0x43>
		UDR0=UDeseada_msj[i];
 948:	a2 0f       	add	r26, r18
 94a:	b3 1f       	adc	r27, r19
 94c:	8c 91       	ld	r24, X
 94e:	da 01       	movw	r26, r20
 950:	8c 93       	st	X, r24
	UDR0 = (uni + 48);					//Envio por puerto serie primer decimal
	while(!(UCSR0A & (1<<UDRE0)));
	UDR0 = 10;
	while(!(UCSR0A & (1<<UDRE0)));
	
	for (i=0;i<=strlen(UDeseada_msj);i++)
 952:	80 91 68 01 	lds	r24, 0x0168
 956:	90 91 69 01 	lds	r25, 0x0169
 95a:	01 96       	adiw	r24, 0x01	; 1
 95c:	90 93 69 01 	sts	0x0169, r25
 960:	80 93 68 01 	sts	0x0168, r24
 964:	d9 01       	movw	r26, r18
 966:	0d 90       	ld	r0, X+
 968:	00 20       	and	r0, r0
 96a:	e9 f7       	brne	.-6      	; 0x966 <__stack+0x67>
 96c:	11 97       	sbiw	r26, 0x01	; 1
 96e:	a2 1b       	sub	r26, r18
 970:	b3 0b       	sbc	r27, r19
 972:	a8 17       	cp	r26, r24
 974:	b9 07       	cpc	r27, r25
 976:	20 f7       	brcc	.-56     	; 0x940 <__stack+0x41>
	{
		while ( !(UCSR0A &(1<<UDRE0)));
		UDR0=UDeseada_msj[i];
	}
	
	cen = (Tension_Deseada/100);
 978:	80 91 5c 01 	lds	r24, 0x015C
 97c:	90 91 5d 01 	lds	r25, 0x015D
 980:	64 e6       	ldi	r22, 0x64	; 100
 982:	70 e0       	ldi	r23, 0x00	; 0
 984:	0e 94 aa 05 	call	0xb54	; 0xb54 <__divmodhi4>
 988:	60 93 4e 01 	sts	0x014E, r22
 98c:	70 93 4f 01 	sts	0x014F, r23
	UDR0 = cen + 48;					//Envio por puerto serie la decena
 990:	60 5d       	subi	r22, 0xD0	; 208
 992:	60 93 c6 00 	sts	0x00C6, r22
	while(!(UCSR0A & (1<<UDRE0)));		// Espera a que se envíe el dato
 996:	e0 ec       	ldi	r30, 0xC0	; 192
 998:	f0 e0       	ldi	r31, 0x00	; 0
 99a:	80 81       	ld	r24, Z
 99c:	85 ff       	sbrs	r24, 5
 99e:	fd cf       	rjmp	.-6      	; 0x99a <__stack+0x9b>
	Resto = (Tension_Deseada%100);
 9a0:	80 91 5c 01 	lds	r24, 0x015C
 9a4:	90 91 5d 01 	lds	r25, 0x015D
 9a8:	64 e6       	ldi	r22, 0x64	; 100
 9aa:	70 e0       	ldi	r23, 0x00	; 0
 9ac:	0e 94 aa 05 	call	0xb54	; 0xb54 <__divmodhi4>
 9b0:	80 93 65 01 	sts	0x0165, r24
	dec = (Resto/10);
 9b4:	2d ec       	ldi	r18, 0xCD	; 205
 9b6:	82 9f       	mul	r24, r18
 9b8:	21 2d       	mov	r18, r1
 9ba:	11 24       	eor	r1, r1
 9bc:	26 95       	lsr	r18
 9be:	26 95       	lsr	r18
 9c0:	26 95       	lsr	r18
 9c2:	82 2f       	mov	r24, r18
 9c4:	90 e0       	ldi	r25, 0x00	; 0
 9c6:	90 93 4d 01 	sts	0x014D, r25
 9ca:	80 93 4c 01 	sts	0x014C, r24
	UDR0 = dec + 48;					//Envio por puerto serie la unidad
 9ce:	20 5d       	subi	r18, 0xD0	; 208
 9d0:	20 93 c6 00 	sts	0x00C6, r18
	while(!(UCSR0A & (1<<UDRE0)));
 9d4:	e0 ec       	ldi	r30, 0xC0	; 192
 9d6:	f0 e0       	ldi	r31, 0x00	; 0
 9d8:	80 81       	ld	r24, Z
 9da:	85 ff       	sbrs	r24, 5
 9dc:	fd cf       	rjmp	.-6      	; 0x9d8 <__stack+0xd9>
	
	UDR0 = 0x2C;						//Envio ","
 9de:	8c e2       	ldi	r24, 0x2C	; 44
 9e0:	80 93 c6 00 	sts	0x00C6, r24
	while(!(UCSR0A & (1<<UDRE0)));
 9e4:	e0 ec       	ldi	r30, 0xC0	; 192
 9e6:	f0 e0       	ldi	r31, 0x00	; 0
 9e8:	80 81       	ld	r24, Z
 9ea:	85 ff       	sbrs	r24, 5
 9ec:	fd cf       	rjmp	.-6      	; 0x9e8 <__stack+0xe9>
	
	uni = (Resto%10);
 9ee:	80 91 65 01 	lds	r24, 0x0165
 9f2:	2d ec       	ldi	r18, 0xCD	; 205
 9f4:	82 9f       	mul	r24, r18
 9f6:	21 2d       	mov	r18, r1
 9f8:	11 24       	eor	r1, r1
 9fa:	26 95       	lsr	r18
 9fc:	26 95       	lsr	r18
 9fe:	26 95       	lsr	r18
 a00:	22 0f       	add	r18, r18
 a02:	92 2f       	mov	r25, r18
 a04:	99 0f       	add	r25, r25
 a06:	99 0f       	add	r25, r25
 a08:	29 0f       	add	r18, r25
 a0a:	82 1b       	sub	r24, r18
 a0c:	28 2f       	mov	r18, r24
 a0e:	90 e0       	ldi	r25, 0x00	; 0
 a10:	90 93 4b 01 	sts	0x014B, r25
 a14:	80 93 4a 01 	sts	0x014A, r24
	UDR0 = (uni + 48);					//Envio por puerto serie primer decimal
 a18:	20 5d       	subi	r18, 0xD0	; 208
 a1a:	20 93 c6 00 	sts	0x00C6, r18
	while(!(UCSR0A & (1<<UDRE0)));
 a1e:	e0 ec       	ldi	r30, 0xC0	; 192
 a20:	f0 e0       	ldi	r31, 0x00	; 0
 a22:	80 81       	ld	r24, Z
 a24:	85 ff       	sbrs	r24, 5
 a26:	fd cf       	rjmp	.-6      	; 0xa22 <__stack+0x123>
	UDR0 = 10;
 a28:	8a e0       	ldi	r24, 0x0A	; 10
 a2a:	80 93 c6 00 	sts	0x00C6, r24
	while(!(UCSR0A & (1<<UDRE0)));
 a2e:	e0 ec       	ldi	r30, 0xC0	; 192
 a30:	f0 e0       	ldi	r31, 0x00	; 0
 a32:	80 81       	ld	r24, Z
 a34:	85 ff       	sbrs	r24, 5
 a36:	fd cf       	rjmp	.-6      	; 0xa32 <__stack+0x133>
 a38:	6f 96       	adiw	r28, 0x1f	; 31
 a3a:	0f b6       	in	r0, 0x3f	; 63
 a3c:	f8 94       	cli
 a3e:	de bf       	out	0x3e, r29	; 62
 a40:	0f be       	out	0x3f, r0	; 63
 a42:	cd bf       	out	0x3d, r28	; 61
 a44:	df 91       	pop	r29
 a46:	cf 91       	pop	r28
 a48:	08 95       	ret

00000a4a <main>:
void dato_recibido(char);
void Mostrar_Tensiones(void);

int main(void)
{	
	DDRD |=(1<<DDD5)|(0<<DDD7)|(0<<DDD6);			// PD5 como salida PWM (OC0B) y PD7(7) como entrada (On/Off_PWM en modo local) y PD6(6) como entrada "MODO_CONTROL"
 a4a:	55 9a       	sbi	0x0a, 5	; 10
	DDRB |=(1<<DDB5)|(1<<DDB3)|(1<<DDB2)|(1<<DDB1)|(1<<DDB0);	// Config como salida PB5(13,CSK), PB3(11,MOSI), PB2(10,SS), PB0(8)semiciclo positivo, PB1(9) semiciclo negativo
 a4c:	84 b1       	in	r24, 0x04	; 4
 a4e:	8f 62       	ori	r24, 0x2F	; 47
 a50:	84 b9       	out	0x04, r24	; 4
	PORTD |= (1<<PORTD2)|(1<<PORTD3)|(1<<PORTD7)|(1<<PORTD6);			// Configuro Restistencias pull up INT0, INT1, On_Off_PWM
 a52:	8b b1       	in	r24, 0x0b	; 11
 a54:	8c 6c       	ori	r24, 0xCC	; 204
 a56:	8b b9       	out	0x0b, r24	; 11
	PORTB |= (1<<PORTB2);									// Resistencia Pull-UP
 a58:	2a 9a       	sbi	0x05, 2	; 5

	TCCR0A= (0<<COM0B1)|(0<<COM0B0)|(0<<WGM01)|(1<<WGM00);	// PWM fase correcta,
 a5a:	21 e0       	ldi	r18, 0x01	; 1
 a5c:	24 bd       	out	0x24, r18	; 36
	TCCR0B= (0<<CS02)|(1<<CS01)|(0<<CS00)|(1<<WGM02);		// Selecciono prescaler en 8
 a5e:	8a e0       	ldi	r24, 0x0A	; 10
 a60:	85 bd       	out	0x25, r24	; 37

	OCR0A= 199;												// Define la frecuencia pwm 5KHz
 a62:	87 ec       	ldi	r24, 0xC7	; 199
 a64:	87 bd       	out	0x27, r24	; 39
	OCR0B = 100;											// Define el ancho de pulso
 a66:	84 e6       	ldi	r24, 0x64	; 100
 a68:	88 bd       	out	0x28, r24	; 40

	EIMSK= (1<<INT1)|(1<<INT0);								// Config INT0 INT1
 a6a:	83 e0       	ldi	r24, 0x03	; 3
 a6c:	8d bb       	out	0x1d, r24	; 29
	EICRA= (1<<ISC11)|(0<<ISC10)|(1<<ISC01)|(1<<ISC00);		// Config INT1 flanco descendente, INT0 flanco ascendente
 a6e:	8b e0       	ldi	r24, 0x0B	; 11
 a70:	80 93 69 00 	sts	0x0069, r24

	TCCR1A=0;
 a74:	10 92 80 00 	sts	0x0080, r1
	TCCR1B=4;												// Selector de reloj CKl/256
 a78:	84 e0       	ldi	r24, 0x04	; 4
 a7a:	80 93 81 00 	sts	0x0081, r24
	TCNT1=30360;											// 1s
 a7e:	88 e9       	ldi	r24, 0x98	; 152
 a80:	96 e7       	ldi	r25, 0x76	; 118
 a82:	90 93 85 00 	sts	0x0085, r25
 a86:	80 93 84 00 	sts	0x0084, r24
	TIMSK1=(1<<TOIE1);										// Habilitación de interrupción por desbordamiento
 a8a:	20 93 6f 00 	sts	0x006F, r18

	UCSR0A=0;
 a8e:	10 92 c0 00 	sts	0x00C0, r1
	UBRR0=103;												// Velociadad de transmicion en 9600
 a92:	87 e6       	ldi	r24, 0x67	; 103
 a94:	90 e0       	ldi	r25, 0x00	; 0
 a96:	90 93 c5 00 	sts	0x00C5, r25
 a9a:	80 93 c4 00 	sts	0x00C4, r24
	UCSR0C=(0<<UMSEL01)|(0<<UMSEL00)|(1<<UCSZ01)|(1<<UCSZ00)|(0<<USBS0)|(0<<UPM01)|(0<<UPM00);	// Modo Asincrono, size caracter 8-bit, 1-bit de stop, paridad OFF
 a9e:	86 e0       	ldi	r24, 0x06	; 6
 aa0:	80 93 c2 00 	sts	0x00C2, r24
	UCSR0B=(1<<RXEN0) | (1<<TXEN0) | (1<<RXCIE0);			// Habilito receptor y transceptor, interrupcion recepcion completa
 aa4:	98 e9       	ldi	r25, 0x98	; 152
 aa6:	90 93 c1 00 	sts	0x00C1, r25

	ADMUX= (1<<REFS0);										// Tension de referencia con capacitor externo
 aaa:	90 e4       	ldi	r25, 0x40	; 64
 aac:	90 93 7c 00 	sts	0x007C, r25
	ADCSRA=(1<<ADEN)|(0<<ADSC)|(1<<ADPS1)|(1<<ADPS0)|(1<<ADATE)|(1<<ADIE);		// Habilito el ADC, Configuro prescaler en 8
 ab0:	9b ea       	ldi	r25, 0xAB	; 171
 ab2:	90 93 7a 00 	sts	0x007A, r25
	ADCSRB=(1<<ADTS2)|(1<<ADTS1);							//Autodisparo por desbordamiento del timer 1
 ab6:	80 93 7b 00 	sts	0x007B, r24
	
	SPCR = (1<<SPE)|(1<<MSTR)|(1<<SPR0);					// Configuracion del SPI Modo Maestro, frecuencia SCK 1Mhz
 aba:	81 e5       	ldi	r24, 0x51	; 81
 abc:	8c bd       	out	0x2c, r24	; 44
	SPI_initial();
 abe:	0e 94 f9 01 	call	0x3f2	; 0x3f2 <SPI_initial>
	
	sei();
 ac2:	78 94       	sei
			onoff();
		}
	
		if ((modo==1)&&(estado==1))							//Pregunto por "MODO REMOTO" y si estado es "O"
		{
			TCCR0A ^= (1<<COM0B1);							//Cambio de estado la salida PWM OC0B (PD5)
 ac4:	10 e2       	ldi	r17, 0x20	; 32
		{
			modo = 0;			//Modo Local
		}
		if(SwitchModo() == 1)
			{
				modo = 1;		//Modo remoto
 ac6:	c1 e0       	ldi	r28, 0x01	; 1
 ac8:	d0 e0       	ldi	r29, 0x00	; 0
	
	sei();
	
	while(1)
	{	
		if(SwitchModo() == 0)
 aca:	0e 94 2f 01 	call	0x25e	; 0x25e <SwitchModo>
 ace:	81 11       	cpse	r24, r1
 ad0:	04 c0       	rjmp	.+8      	; 0xada <main+0x90>
		{
			modo = 0;			//Modo Local
 ad2:	10 92 73 01 	sts	0x0173, r1
 ad6:	10 92 72 01 	sts	0x0172, r1
		}
		if(SwitchModo() == 1)
 ada:	0e 94 2f 01 	call	0x25e	; 0x25e <SwitchModo>
 ade:	81 30       	cpi	r24, 0x01	; 1
 ae0:	29 f4       	brne	.+10     	; 0xaec <main+0xa2>
			{
				modo = 1;		//Modo remoto
 ae2:	d0 93 73 01 	sts	0x0173, r29
 ae6:	c0 93 72 01 	sts	0x0172, r28
 aea:	15 c0       	rjmp	.+42     	; 0xb16 <main+0xcc>
			}											
	
		if ((modo==0)&&(OnOffSwitch()==1))					//Pregunto por "MODO LOCAL" y si el PIN7 fue pulsado
 aec:	80 91 72 01 	lds	r24, 0x0172
 af0:	90 91 73 01 	lds	r25, 0x0173
 af4:	89 2b       	or	r24, r25
 af6:	49 f4       	brne	.+18     	; 0xb0a <main+0xc0>
 af8:	0e 94 1e 01 	call	0x23c	; 0x23c <OnOffSwitch>
 afc:	81 30       	cpi	r24, 0x01	; 1
 afe:	29 f4       	brne	.+10     	; 0xb0a <main+0xc0>
		{
			TCCR0A ^= (1<<COM0B1);						   //Cambio de estado la salida PWM OC0B (PD5)
 b00:	84 b5       	in	r24, 0x24	; 36
 b02:	81 27       	eor	r24, r17
 b04:	84 bd       	out	0x24, r24	; 36
			onoff();
 b06:	0e 94 f2 02 	call	0x5e4	; 0x5e4 <onoff>
		}
	
		if ((modo==1)&&(estado==1))							//Pregunto por "MODO REMOTO" y si estado es "O"
 b0a:	80 91 72 01 	lds	r24, 0x0172
 b0e:	90 91 73 01 	lds	r25, 0x0173
 b12:	01 97       	sbiw	r24, 0x01	; 1
 b14:	79 f4       	brne	.+30     	; 0xb34 <main+0xea>
 b16:	80 91 5a 01 	lds	r24, 0x015A
 b1a:	90 91 5b 01 	lds	r25, 0x015B
 b1e:	01 97       	sbiw	r24, 0x01	; 1
 b20:	49 f4       	brne	.+18     	; 0xb34 <main+0xea>
		{
			TCCR0A ^= (1<<COM0B1);							//Cambio de estado la salida PWM OC0B (PD5)
 b22:	84 b5       	in	r24, 0x24	; 36
 b24:	81 27       	eor	r24, r17
 b26:	84 bd       	out	0x24, r24	; 36
			estado=0;										//Cambio el estado para que no vuelva a ingresar
 b28:	10 92 5b 01 	sts	0x015B, r1
 b2c:	10 92 5a 01 	sts	0x015A, r1
			onoff();										//Llama a funcion para mostrar estado por puerto serial y OFF en el MAX
 b30:	0e 94 f2 02 	call	0x5e4	; 0x5e4 <onoff>
		}

	CONTROL(DATO);
 b34:	8c e6       	ldi	r24, 0x6C	; 108
 b36:	91 e0       	ldi	r25, 0x01	; 1
 b38:	0e 94 53 00 	call	0xa6	; 0xa6 <CONTROL>
	Mostrar_Tensiones();	
 b3c:	0e 94 96 03 	call	0x72c	; 0x72c <Mostrar_Tensiones>
	#else
		//round up by default
		__ticks_dc = (uint32_t)(ceil(fabs(__tmp)));
	#endif

	__builtin_avr_delay_cycles(__ticks_dc);
 b40:	2f e7       	ldi	r18, 0x7F	; 127
 b42:	88 e3       	ldi	r24, 0x38	; 56
 b44:	91 e0       	ldi	r25, 0x01	; 1
 b46:	21 50       	subi	r18, 0x01	; 1
 b48:	80 40       	sbci	r24, 0x00	; 0
 b4a:	90 40       	sbci	r25, 0x00	; 0
 b4c:	e1 f7       	brne	.-8      	; 0xb46 <main+0xfc>
 b4e:	00 c0       	rjmp	.+0      	; 0xb50 <main+0x106>
 b50:	00 00       	nop
 b52:	bb cf       	rjmp	.-138    	; 0xaca <main+0x80>

00000b54 <__divmodhi4>:
 b54:	97 fb       	bst	r25, 7
 b56:	07 2e       	mov	r0, r23
 b58:	16 f4       	brtc	.+4      	; 0xb5e <__divmodhi4+0xa>
 b5a:	00 94       	com	r0
 b5c:	07 d0       	rcall	.+14     	; 0xb6c <__divmodhi4_neg1>
 b5e:	77 fd       	sbrc	r23, 7
 b60:	09 d0       	rcall	.+18     	; 0xb74 <__divmodhi4_neg2>
 b62:	0e 94 be 05 	call	0xb7c	; 0xb7c <__udivmodhi4>
 b66:	07 fc       	sbrc	r0, 7
 b68:	05 d0       	rcall	.+10     	; 0xb74 <__divmodhi4_neg2>
 b6a:	3e f4       	brtc	.+14     	; 0xb7a <__divmodhi4_exit>

00000b6c <__divmodhi4_neg1>:
 b6c:	90 95       	com	r25
 b6e:	81 95       	neg	r24
 b70:	9f 4f       	sbci	r25, 0xFF	; 255
 b72:	08 95       	ret

00000b74 <__divmodhi4_neg2>:
 b74:	70 95       	com	r23
 b76:	61 95       	neg	r22
 b78:	7f 4f       	sbci	r23, 0xFF	; 255

00000b7a <__divmodhi4_exit>:
 b7a:	08 95       	ret

00000b7c <__udivmodhi4>:
 b7c:	aa 1b       	sub	r26, r26
 b7e:	bb 1b       	sub	r27, r27
 b80:	51 e1       	ldi	r21, 0x11	; 17
 b82:	07 c0       	rjmp	.+14     	; 0xb92 <__udivmodhi4_ep>

00000b84 <__udivmodhi4_loop>:
 b84:	aa 1f       	adc	r26, r26
 b86:	bb 1f       	adc	r27, r27
 b88:	a6 17       	cp	r26, r22
 b8a:	b7 07       	cpc	r27, r23
 b8c:	10 f0       	brcs	.+4      	; 0xb92 <__udivmodhi4_ep>
 b8e:	a6 1b       	sub	r26, r22
 b90:	b7 0b       	sbc	r27, r23

00000b92 <__udivmodhi4_ep>:
 b92:	88 1f       	adc	r24, r24
 b94:	99 1f       	adc	r25, r25
 b96:	5a 95       	dec	r21
 b98:	a9 f7       	brne	.-22     	; 0xb84 <__udivmodhi4_loop>
 b9a:	80 95       	com	r24
 b9c:	90 95       	com	r25
 b9e:	bc 01       	movw	r22, r24
 ba0:	cd 01       	movw	r24, r26
 ba2:	08 95       	ret

00000ba4 <_exit>:
 ba4:	f8 94       	cli

00000ba6 <__stop_program>:
 ba6:	ff cf       	rjmp	.-2      	; 0xba6 <__stop_program>
